; Function Attrs: nounwind sspstrong uwtable
define internal i64 @ossl_pkcs7ri_get_enc_key(i64 noundef %0) #0 {
  %2 = tail call ptr @rb_check_typeddata(i64 noundef %0, ptr noundef nonnull @ossl_pkcs7_recip_info_type) #5
  %.not = icmp eq ptr %2, null
  br i1 %.not, label %3, label %5

3:                                                ; preds = %1
  %4 = load i64, ptr @rb_eRuntimeError, align 8, !tbaa !6
  tail call void (i64, ptr, ...) @ossl_raise(i64 noundef %4, ptr noundef nonnull @.str.77) #6
  unreachable

5:                                                ; preds = %1
  %6 = getelementptr inbounds nuw i8, ptr %2, i64 24
  %7 = load ptr, ptr %6, align 8, !tbaa !79
  %8 = tail call i64 @asn1str_to_str(ptr noundef %7) #5
  ret i64 %8
}